target datalayout = "e-m:e-p270:32:32-p271:32:32-p272:64:64-i64:64-i128:128-f80:128-n8:16:32:64-S128"
target triple = "x86_64-pc-linux-gnu"

%struct.file_ctx_st = type { ptr, ptr, i32, %union.anon, i32 }
%union.anon = type { %struct.anon.1 }
%struct.anon.1 = type { ptr, i32, [9 x i8], ptr, i32 }
%struct.anon.0 = type { ptr, ptr, ptr, ptr }

@.str.4 = private unnamed_addr constant [60 x i8] c"../openssl/providers/implementations/storemgmt/file_store.c\00", align 1

; Function Attrs: nounwind uwtable
define internal void @free_file_ctx(ptr noundef %0) #0 {
  %2 = alloca ptr, align 8
  store ptr %0, ptr %2, align 8, !tbaa !9
  %3 = load ptr, ptr %2, align 8, !tbaa !9
  %4 = icmp eq ptr %3, null
  br i1 %4, label %5, label %6

5:                                                ; preds = %1
  br label %29

6:                                                ; preds = %1
  %7 = load ptr, ptr %2, align 8, !tbaa !9
  %8 = getelementptr inbounds nuw %struct.file_ctx_st, ptr %7, i32 0, i32 1
  %9 = load ptr, ptr %8, align 8, !tbaa !34
  call void @CRYPTO_free(ptr noundef %9, ptr noundef @.str.4, i32 noundef 114)
  %10 = load ptr, ptr %2, align 8, !tbaa !9
  %11 = getelementptr inbounds nuw %struct.file_ctx_st, ptr %10, i32 0, i32 2
  %12 = load i32, ptr %11, align 8, !tbaa !29
  %13 = icmp ne i32 %12, 1
  br i1 %13, label %14, label %27

14:                                               ; preds = %6
  %15 = load ptr, ptr %2, align 8, !tbaa !9
  %16 = getelementptr inbounds nuw %struct.file_ctx_st, ptr %15, i32 0, i32 3
  %17 = getelementptr inbounds nuw %struct.anon.0, ptr %16, i32 0, i32 1
  %18 = load ptr, ptr %17, align 8, !tbaa !16
  call void @OSSL_DECODER_CTX_free(ptr noundef %18)
  %19 = load ptr, ptr %2, align 8, !tbaa !9
  %20 = getelementptr inbounds nuw %struct.file_ctx_st, ptr %19, i32 0, i32 3
  %21 = getelementptr inbounds nuw %struct.anon.0, ptr %20, i32 0, i32 3
  %22 = load ptr, ptr %21, align 8, !tbaa !16
  call void @CRYPTO_free(ptr noundef %22, ptr noundef @.str.4, i32 noundef 117)
  %23 = load ptr, ptr %2, align 8, !tbaa !9
  %24 = getelementptr inbounds nuw %struct.file_ctx_st, ptr %23, i32 0, i32 3
  %25 = getelementptr inbounds nuw %struct.anon.0, ptr %24, i32 0, i32 2
  %26 = load ptr, ptr %25, align 8, !tbaa !16
  call void @CRYPTO_free(ptr noundef %26, ptr noundef @.str.4, i32 noundef 118)
  br label %27

27:                                               ; preds = %14, %6
  %28 = load ptr, ptr %2, align 8, !tbaa !9
  call void @CRYPTO_free(ptr noundef %28, ptr noundef @.str.4, i32 noundef 120)
  br label %29

29:                                               ; preds = %27, %5
  ret void
}

; Function Attrs: nounwind uwtable
define internal ptr @new_file_ctx(i32 noundef %0, ptr noundef %1, ptr noundef %2) #0 {
  %4 = alloca ptr, align 8
  %5 = alloca i32, align 4
  %6 = alloca ptr, align 8
  %7 = alloca ptr, align 8
  %8 = alloca ptr, align 8
  %9 = alloca i32, align 4
  store i32 %0, ptr %5, align 4, !tbaa !17
  store ptr %1, ptr %6, align 8, !tbaa !7
  store ptr %2, ptr %7, align 8, !tbaa !3
  call void @llvm.lifetime.start.p0(i64 8, ptr %8) #8
  store ptr null, ptr %8, align 8, !tbaa !9
  %10 = call noalias ptr @CRYPTO_zalloc(i64 noundef 72, ptr noundef @.str.4, i32 noundef 128)
  store ptr %10, ptr %8, align 8, !tbaa !9
  %11 = icmp ne ptr %10, null
  br i1 %11, label %12, label %29

12:                                               ; preds = %3
  %13 = load ptr, ptr %6, align 8, !tbaa !7
  %14 = icmp eq ptr %13, null
  br i1 %14, label %21, label %15

15:                                               ; preds = %12
  %16 = load ptr, ptr %6, align 8, !tbaa !7
  %17 = call noalias ptr @CRYPTO_strdup(ptr noundef %16, ptr noundef @.str.4, i32 noundef 129)
  %18 = load ptr, ptr %8, align 8, !tbaa !9
  %19 = getelementptr inbounds nuw %struct.file_ctx_st, ptr %18, i32 0, i32 1
  store ptr %17, ptr %19, align 8, !tbaa !34
  %20 = icmp ne ptr %17, null
  br i1 %20, label %21, label %29

21:                                               ; preds = %15, %12
  %22 = load i32, ptr %5, align 4, !tbaa !17
  %23 = load ptr, ptr %8, align 8, !tbaa !9
  %24 = getelementptr inbounds nuw %struct.file_ctx_st, ptr %23, i32 0, i32 2
  store i32 %22, ptr %24, align 8, !tbaa !29
  %25 = load ptr, ptr %7, align 8, !tbaa !3
  %26 = load ptr, ptr %8, align 8, !tbaa !9
  %27 = getelementptr inbounds nuw %struct.file_ctx_st, ptr %26, i32 0, i32 0
  store ptr %25, ptr %27, align 8, !tbaa !33
  %28 = load ptr, ptr %8, align 8, !tbaa !9
  store ptr %28, ptr %4, align 8
  store i32 1, ptr %9, align 4
  br label %31

29:                                               ; preds = %15, %3
  %30 = load ptr, ptr %8, align 8, !tbaa !9
  call void @free_file_ctx(ptr noundef %30)
  store ptr null, ptr %4, align 8
  store i32 1, ptr %9, align 4
  br label %31

31:                                               ; preds = %29, %21
  call void @llvm.lifetime.end.p0(i64 8, ptr %8) #8
  %32 = load ptr, ptr %4, align 8
  ret ptr %32
}