; Function Attrs: nounwind uwtable
define internal fastcc ptr @new_file_ctx(i32 noundef range(i32 0, 2) %0, ptr noundef %1, ptr noundef %2) unnamed_addr #0 {
  %4 = tail call noalias ptr @CRYPTO_zalloc(i64 noundef 72, ptr noundef nonnull @.str.4, i32 noundef 128) #8
  %.not = icmp eq ptr %4, null
  br i1 %.not, label %.split, label %5

5:                                                ; preds = %3
  %6 = icmp eq ptr %1, null
  br i1 %6, label %19, label %7

7:                                                ; preds = %5
  %8 = tail call noalias ptr @CRYPTO_strdup(ptr noundef nonnull %1, ptr noundef nonnull @.str.4, i32 noundef 129) #8
  %9 = getelementptr inbounds nuw i8, ptr %4, i64 8
  store ptr %8, ptr %9, align 8, !tbaa !38
  %.not12 = icmp eq ptr %8, null
  br i1 %.not12, label %.split9, label %19

.split9:                                          ; preds = %7
  tail call void @CRYPTO_free(ptr noundef null, ptr noundef nonnull @.str.4, i32 noundef 114) #8
  %10 = getelementptr inbounds nuw i8, ptr %4, i64 16
  %11 = load i32, ptr %10, align 8, !tbaa !18
  %.not.i = icmp eq i32 %11, 1
  br i1 %.not.i, label %free_file_ctx.exit, label %12

12:                                               ; preds = %.split9
  %13 = getelementptr inbounds nuw i8, ptr %4, i64 32
  %14 = load ptr, ptr %13, align 8, !tbaa !10
  tail call void @OSSL_DECODER_CTX_free(ptr noundef %14) #8
  %15 = getelementptr inbounds nuw i8, ptr %4, i64 48
  %16 = load ptr, ptr %15, align 8, !tbaa !10
  tail call void @CRYPTO_free(ptr noundef %16, ptr noundef nonnull @.str.4, i32 noundef 117) #8
  %17 = getelementptr inbounds nuw i8, ptr %4, i64 40
  %18 = load ptr, ptr %17, align 8, !tbaa !10
  tail call void @CRYPTO_free(ptr noundef %18, ptr noundef nonnull @.str.4, i32 noundef 118) #8
  br label %free_file_ctx.exit

free_file_ctx.exit:                               ; preds = %.split9, %12
  tail call void @CRYPTO_free(ptr noundef nonnull %4, ptr noundef nonnull @.str.4, i32 noundef 120) #8
  br label %.split

19:                                               ; preds = %7, %5
  %20 = getelementptr inbounds nuw i8, ptr %4, i64 16
  store i32 %0, ptr %20, align 8, !tbaa !18
  store ptr %2, ptr %4, align 8, !tbaa !20
  br label %.split

.split:                                           ; preds = %3, %free_file_ctx.exit, %19
  %.0 = phi ptr [ %4, %19 ], [ null, %free_file_ctx.exit ], [ null, %3 ]
  ret ptr %.0
}